; Function Attrs: nounwind uwtable
define dso_local void @ExecReScanTidScan(ptr noundef initializes((236, 244)) %0) local_unnamed_addr #0 {
  %2 = getelementptr inbounds nuw i8, ptr %0, i64 248
  %3 = load ptr, ptr %2, align 8
  %.not = icmp eq ptr %3, null
  br i1 %.not, label %5, label %4

4:                                                ; preds = %1
  tail call void @pfree(ptr noundef nonnull %3) #9
  br label %5

5:                                                ; preds = %4, %1
  store ptr null, ptr %2, align 8
  %6 = getelementptr inbounds nuw i8, ptr %0, i64 236
  store i32 0, ptr %6, align 4
  %7 = getelementptr inbounds nuw i8, ptr %0, i64 240
  store i32 -1, ptr %7, align 8
  %8 = getelementptr inbounds nuw i8, ptr %0, i64 208
  %9 = load ptr, ptr %8, align 8
  %.not9 = icmp eq ptr %9, null
  br i1 %.not9, label %16, label %10

10:                                               ; preds = %5
  %11 = load ptr, ptr %9, align 8
  %12 = getelementptr inbounds nuw i8, ptr %11, i64 320
  %13 = load ptr, ptr %12, align 8
  %14 = getelementptr inbounds nuw i8, ptr %13, i64 32
  %15 = load ptr, ptr %14, align 8
  tail call void %15(ptr noundef nonnull %9, ptr noundef null, i1 noundef zeroext false, i1 noundef zeroext false, i1 noundef zeroext false, i1 noundef zeroext false) #9
  br label %16

16:                                               ; preds = %10, %5
  tail call void @ExecScanReScan(ptr noundef nonnull %0) #9
  ret void
}